target datalayout = "e-m:e-p270:32:32-p271:32:32-p272:64:64-i64:64-i128:128-f80:128-n8:16:32:64-S128"
target triple = "x86_64-pc-linux-gnu"

%struct.procfs_entry_s = type { ptr, ptr, i8 }
%struct.procfs_operations = type { ptr, ptr, ptr, ptr, ptr, ptr, ptr, ptr, ptr, ptr, ptr }
%struct.procfs_level0_s = type { %struct.procfs_dir_priv_s, i8, [128 x i32], ptr }
%struct.procfs_dir_priv_s = type { %struct.fs_dirent_s, i8, i16, i16, ptr }
%struct.fs_dirent_s = type { ptr, ptr }
%struct.procfs_level1_s = type { %struct.procfs_dir_priv_s, i8, i8, i16, ptr }

@.str.13 = private unnamed_addr constant [1 x i8] zeroinitializer, align 1

; Function Attrs: nounwind uwtable
define internal void @procfs_sort_pid(ptr noundef %0) #0 {
  %2 = alloca ptr, align 8
  %3 = alloca i32, align 4
  %4 = alloca i32, align 4
  %5 = alloca i32, align 4
  store ptr %0, ptr %2, align 8
  store i32 0, ptr %4, align 4
  br label %6

6:                                                ; preds = %72, %1
  %7 = load i32, ptr %4, align 4
  %8 = load ptr, ptr %2, align 8
  %9 = getelementptr inbounds %struct.procfs_level0_s, ptr %8, i32 0, i32 0
  %10 = getelementptr inbounds %struct.procfs_dir_priv_s, ptr %9, i32 0, i32 3
  %11 = load i16, ptr %10, align 4
  %12 = zext i16 %11 to i32
  %13 = icmp slt i32 %7, %12
  br i1 %13, label %14, label %75

14:                                               ; preds = %6
  store i32 0, ptr %5, align 4
  br label %15

15:                                               ; preds = %68, %14
  %16 = load i32, ptr %5, align 4
  %17 = load ptr, ptr %2, align 8
  %18 = getelementptr inbounds %struct.procfs_level0_s, ptr %17, i32 0, i32 0
  %19 = getelementptr inbounds %struct.procfs_dir_priv_s, ptr %18, i32 0, i32 3
  %20 = load i16, ptr %19, align 4
  %21 = zext i16 %20 to i32
  %22 = sub nsw i32 %21, 1
  %23 = load i32, ptr %4, align 4
  %24 = sub nsw i32 %22, %23
  %25 = icmp slt i32 %16, %24
  br i1 %25, label %26, label %71

26:                                               ; preds = %15
  %27 = load ptr, ptr %2, align 8
  %28 = getelementptr inbounds %struct.procfs_level0_s, ptr %27, i32 0, i32 2
  %29 = load i32, ptr %5, align 4
  %30 = sext i32 %29 to i64
  %31 = getelementptr inbounds [128 x i32], ptr %28, i64 0, i64 %30
  %32 = load i32, ptr %31, align 4
  %33 = load ptr, ptr %2, align 8
  %34 = getelementptr inbounds %struct.procfs_level0_s, ptr %33, i32 0, i32 2
  %35 = load i32, ptr %5, align 4
  %36 = add nsw i32 %35, 1
  %37 = sext i32 %36 to i64
  %38 = getelementptr inbounds [128 x i32], ptr %34, i64 0, i64 %37
  %39 = load i32, ptr %38, align 4
  %40 = icmp sgt i32 %32, %39
  br i1 %40, label %41, label %67

41:                                               ; preds = %26
  %42 = load ptr, ptr %2, align 8
  %43 = getelementptr inbounds %struct.procfs_level0_s, ptr %42, i32 0, i32 2
  %44 = load i32, ptr %5, align 4
  %45 = sext i32 %44 to i64
  %46 = getelementptr inbounds [128 x i32], ptr %43, i64 0, i64 %45
  %47 = load i32, ptr %46, align 4
  store i32 %47, ptr %3, align 4
  %48 = load ptr, ptr %2, align 8
  %49 = getelementptr inbounds %struct.procfs_level0_s, ptr %48, i32 0, i32 2
  %50 = load i32, ptr %5, align 4
  %51 = add nsw i32 %50, 1
  %52 = sext i32 %51 to i64
  %53 = getelementptr inbounds [128 x i32], ptr %49, i64 0, i64 %52
  %54 = load i32, ptr %53, align 4
  %55 = load ptr, ptr %2, align 8
  %56 = getelementptr inbounds %struct.procfs_level0_s, ptr %55, i32 0, i32 2
  %57 = load i32, ptr %5, align 4
  %58 = sext i32 %57 to i64
  %59 = getelementptr inbounds [128 x i32], ptr %56, i64 0, i64 %58
  store i32 %54, ptr %59, align 4
  %60 = load i32, ptr %3, align 4
  %61 = load ptr, ptr %2, align 8
  %62 = getelementptr inbounds %struct.procfs_level0_s, ptr %61, i32 0, i32 2
  %63 = load i32, ptr %5, align 4
  %64 = add nsw i32 %63, 1
  %65 = sext i32 %64 to i64
  %66 = getelementptr inbounds [128 x i32], ptr %62, i64 0, i64 %65
  store i32 %60, ptr %66, align 4
  br label %67

67:                                               ; preds = %41, %26
  br label %68

68:                                               ; preds = %67
  %69 = load i32, ptr %5, align 4
  %70 = add nsw i32 %69, 1
  store i32 %70, ptr %5, align 4
  br label %15, !llvm.loop !13

71:                                               ; preds = %15
  br label %72

72:                                               ; preds = %71
  %73 = load i32, ptr %4, align 4
  %74 = add nsw i32 %73, 1
  store i32 %74, ptr %4, align 4
  br label %6, !llvm.loop !14

75:                                               ; preds = %6
  ret void
}

; Function Attrs: nounwind uwtable
define internal i32 @procfs_opendir(ptr noundef %0, ptr noundef %1, ptr noundef %2) #0 {
  %4 = alloca i32, align 4
  %5 = alloca ptr, align 8
  %6 = alloca ptr, align 8
  %7 = alloca ptr, align 8
  %8 = alloca ptr, align 8
  %9 = alloca i32, align 4
  %10 = alloca i32, align 4
  %11 = alloca i32, align 4
  %12 = alloca ptr, align 8
  %13 = alloca ptr, align 8
  store ptr %0, ptr %5, align 8
  store ptr %1, ptr %6, align 8
  store ptr %2, ptr %7, align 8
  br label %14

14:                                               ; preds = %3
  br label %15

15:                                               ; preds = %14
  %16 = load ptr, ptr %6, align 8
  %17 = icmp ne ptr %16, null
  br i1 %17, label %18, label %24

18:                                               ; preds = %15
  %19 = load ptr, ptr %6, align 8
  %20 = getelementptr inbounds i8, ptr %19, i64 0
  %21 = load i8, ptr %20, align 1
  %22 = sext i8 %21 to i32
  %23 = icmp eq i32 %22, 0
  br i1 %23, label %24, label %43

24:                                               ; preds = %18, %15
  %25 = call noalias ptr @zalloc(i64 noundef 560) #5
  store ptr %25, ptr %8, align 8
  %26 = load ptr, ptr %8, align 8
  %27 = icmp ne ptr %26, null
  br i1 %27, label %31, label %28

28:                                               ; preds = %24
  br label %29

29:                                               ; preds = %28
  br label %30

30:                                               ; preds = %29
  store i32 -12, ptr %4, align 4
  br label %137

31:                                               ; preds = %24
  %32 = load ptr, ptr %8, align 8
  call void @nxsched_foreach(ptr noundef @procfs_enum, ptr noundef %32)
  %33 = load ptr, ptr %8, align 8
  call void @procfs_sort_pid(ptr noundef %33)
  %34 = load ptr, ptr %8, align 8
  %35 = getelementptr inbounds %struct.procfs_level0_s, ptr %34, i32 0, i32 3
  store ptr @.str.13, ptr %35, align 8
  %36 = load ptr, ptr %8, align 8
  %37 = getelementptr inbounds %struct.procfs_level0_s, ptr %36, i32 0, i32 1
  store i8 0, ptr %37, align 8
  %38 = load ptr, ptr %8, align 8
  %39 = getelementptr inbounds %struct.procfs_level0_s, ptr %38, i32 0, i32 0
  %40 = getelementptr inbounds %struct.procfs_dir_priv_s, ptr %39, i32 0, i32 4
  store ptr null, ptr %40, align 8
  %41 = load ptr, ptr %8, align 8
  %42 = load ptr, ptr %7, align 8
  store ptr %41, ptr %42, align 8
  br label %136

43:                                               ; preds = %18
  %44 = load ptr, ptr %6, align 8
  %45 = call i64 @strlen(ptr noundef %44) #6
  %46 = trunc i64 %45 to i32
  store i32 %46, ptr %11, align 4
  store i32 0, ptr %9, align 4
  br label %47

47:                                               ; preds = %128, %43
  %48 = load i32, ptr %9, align 4
  %49 = icmp slt i32 %48, 13
  br i1 %49, label %50, label %131

50:                                               ; preds = %47
  %51 = load i32, ptr %9, align 4
  %52 = sext i32 %51 to i64
  %53 = getelementptr inbounds [13 x %struct.procfs_entry_s], ptr @g_procfs_entries, i64 0, i64 %52
  %54 = getelementptr inbounds %struct.procfs_entry_s, ptr %53, i32 0, i32 0
  %55 = load ptr, ptr %54, align 8
  %56 = load ptr, ptr %6, align 8
  %57 = call i32 @fnmatch(ptr noundef %55, ptr noundef %56, i32 noundef 0)
  %58 = icmp eq i32 %57, 0
  br i1 %58, label %59, label %82

59:                                               ; preds = %50
  %60 = load i32, ptr %9, align 4
  %61 = sext i32 %60 to i64
  %62 = getelementptr inbounds [13 x %struct.procfs_entry_s], ptr @g_procfs_entries, i64 0, i64 %61
  %63 = getelementptr inbounds %struct.procfs_entry_s, ptr %62, i32 0, i32 1
  %64 = load ptr, ptr %63, align 8
  %65 = getelementptr inbounds %struct.procfs_operations, ptr %64, i32 0, i32 6
  %66 = load ptr, ptr %65, align 8
  %67 = load ptr, ptr %6, align 8
  %68 = load ptr, ptr %7, align 8
  %69 = call i32 %66(ptr noundef %67, ptr noundef %68)
  store i32 %69, ptr %10, align 4
  %70 = load i32, ptr %10, align 4
  %71 = icmp eq i32 %70, 0
  br i1 %71, label %72, label %80

72:                                               ; preds = %59
  %73 = load ptr, ptr %7, align 8
  %74 = load ptr, ptr %73, align 8
  store ptr %74, ptr %12, align 8
  %75 = load i32, ptr %9, align 4
  %76 = sext i32 %75 to i64
  %77 = getelementptr inbounds [13 x %struct.procfs_entry_s], ptr @g_procfs_entries, i64 0, i64 %76
  %78 = load ptr, ptr %12, align 8
  %79 = getelementptr inbounds %struct.procfs_dir_priv_s, ptr %78, i32 0, i32 4
  store ptr %77, ptr %79, align 8
  br label %80

80:                                               ; preds = %72, %59
  %81 = load i32, ptr %10, align 4
  store i32 %81, ptr %4, align 4
  br label %137

82:                                               ; preds = %50
  %83 = load i32, ptr %9, align 4
  %84 = sext i32 %83 to i64
  %85 = getelementptr inbounds [13 x %struct.procfs_entry_s], ptr @g_procfs_entries, i64 0, i64 %84
  %86 = getelementptr inbounds %struct.procfs_entry_s, ptr %85, i32 0, i32 0
  %87 = load ptr, ptr %86, align 8
  %88 = load ptr, ptr %6, align 8
  %89 = load i32, ptr %11, align 4
  %90 = sext i32 %89 to i64
  %91 = call i32 @strncmp(ptr noundef %87, ptr noundef %88, i64 noundef %90) #6
  %92 = icmp eq i32 %91, 0
  br i1 %92, label %93, label %126

93:                                               ; preds = %82
  %94 = call noalias ptr @zalloc(i64 noundef 48) #5
  store ptr %94, ptr %13, align 8
  %95 = load ptr, ptr %13, align 8
  %96 = icmp ne ptr %95, null
  br i1 %96, label %100, label %97

97:                                               ; preds = %93
  br label %98

98:                                               ; preds = %97
  br label %99

99:                                               ; preds = %98
  store i32 -12, ptr %4, align 4
  br label %137

100:                                              ; preds = %93
  %101 = load ptr, ptr %13, align 8
  %102 = getelementptr inbounds %struct.procfs_level1_s, ptr %101, i32 0, i32 0
  %103 = getelementptr inbounds %struct.procfs_dir_priv_s, ptr %102, i32 0, i32 1
  store i8 1, ptr %103, align 8
  %104 = load i32, ptr %9, align 4
  %105 = trunc i32 %104 to i16
  %106 = load ptr, ptr %13, align 8
  %107 = getelementptr inbounds %struct.procfs_level1_s, ptr %106, i32 0, i32 0
  %108 = getelementptr inbounds %struct.procfs_dir_priv_s, ptr %107, i32 0, i32 2
  store i16 %105, ptr %108, align 2
  %109 = load i32, ptr %9, align 4
  %110 = trunc i32 %109 to i16
  %111 = load ptr, ptr %13, align 8
  %112 = getelementptr inbounds %struct.procfs_level1_s, ptr %111, i32 0, i32 3
  store i16 %110, ptr %112, align 2
  %113 = load i32, ptr %11, align 4
  %114 = trunc i32 %113 to i8
  %115 = load ptr, ptr %13, align 8
  %116 = getelementptr inbounds %struct.procfs_level1_s, ptr %115, i32 0, i32 2
  store i8 %114, ptr %116, align 1
  %117 = load ptr, ptr %13, align 8
  %118 = getelementptr inbounds %struct.procfs_level1_s, ptr %117, i32 0, i32 4
  store ptr @.str.13, ptr %118, align 8
  %119 = load ptr, ptr %13, align 8
  %120 = getelementptr inbounds %struct.procfs_level1_s, ptr %119, i32 0, i32 1
  store i8 0, ptr %120, align 8
  %121 = load ptr, ptr %13, align 8
  %122 = getelementptr inbounds %struct.procfs_level1_s, ptr %121, i32 0, i32 0
  %123 = getelementptr inbounds %struct.procfs_dir_priv_s, ptr %122, i32 0, i32 4
  store ptr null, ptr %123, align 8
  %124 = load ptr, ptr %13, align 8
  %125 = load ptr, ptr %7, align 8
  store ptr %124, ptr %125, align 8
  br label %131

126:                                              ; preds = %82
  br label %127

127:                                              ; preds = %126
  br label %128

128:                                              ; preds = %127
  %129 = load i32, ptr %9, align 4
  %130 = add nsw i32 %129, 1
  store i32 %130, ptr %9, align 4
  br label %47, !llvm.loop !8

131:                                              ; preds = %100, %47
  %132 = load i32, ptr %9, align 4
  %133 = icmp eq i32 %132, 13
  br i1 %133, label %134, label %135

134:                                              ; preds = %131
  store i32 -2, ptr %4, align 4
  br label %137

135:                                              ; preds = %131
  br label %136

136:                                              ; preds = %135, %31
  store i32 0, ptr %4, align 4
  br label %137

137:                                              ; preds = %136, %134, %99, %80, %30
  %138 = load i32, ptr %4, align 4
  ret i32 %138
}