; Function Attrs: nounwind uwtable
define internal i32 @procfs_opendir(ptr readnone captures(none) %0, ptr noundef %1, ptr noundef %2) #0 {
  %.not = icmp eq ptr %1, null
  br i1 %.not, label %7, label %4

4:                                                ; preds = %3
  %5 = load i8, ptr %1, align 1
  %6 = icmp eq i8 %5, 0
  br i1 %6, label %7, label %25

7:                                                ; preds = %4, %3
  %8 = tail call noalias dereferenceable_or_null(560) ptr @zalloc(i64 noundef 560) #13
  %.not45 = icmp eq ptr %8, null
  br i1 %.not45, label %.loopexit, label %9

9:                                                ; preds = %7
  tail call void @nxsched_foreach(ptr noundef nonnull @procfs_enum, ptr noundef nonnull %8) #12
  %10 = getelementptr inbounds nuw i8, ptr %8, i64 20
  %11 = load i16, ptr %10, align 4
  %12 = zext i16 %11 to i32
  %.not.i = icmp eq i16 %11, 0
  br i1 %.not.i, label %procfs_sort_pid.exit, label %.preheader.lr.ph.i

.preheader.lr.ph.i:                               ; preds = %9
  %13 = getelementptr inbounds nuw i8, ptr %8, i64 36
  %invariant.op.i = add nsw i32 %12, -1
  br label %.preheader.i

.preheader.i:                                     ; preds = %._crit_edge.i, %.preheader.lr.ph.i
  %indvars.iv26.in.i = phi i32 [ %12, %.preheader.lr.ph.i ], [ %indvars.iv26.i, %._crit_edge.i ]
  %.01923.i = phi i32 [ 0, %.preheader.lr.ph.i ], [ %23, %._crit_edge.i ]
  %indvars.iv26.i = add nsw i32 %indvars.iv26.in.i, -1
  %14 = icmp slt i32 %.01923.i, %invariant.op.i
  br i1 %14, label %.lr.ph.preheader.i, label %._crit_edge.i

.lr.ph.preheader.i:                               ; preds = %.preheader.i
  %wide.trip.count.i = zext i32 %indvars.iv26.i to i64
  %.pre.i = load i32, ptr %13, align 4
  br label %.lr.ph.i

.lr.ph.i:                                         ; preds = %21, %.lr.ph.preheader.i
  %15 = phi i32 [ %.pre.i, %.lr.ph.preheader.i ], [ %22, %21 ]
  %indvars.iv.i = phi i64 [ 0, %.lr.ph.preheader.i ], [ %indvars.iv.next.i, %21 ]
  %indvars.iv.next.i = add nuw nsw i64 %indvars.iv.i, 1
  %16 = getelementptr inbounds nuw [128 x i32], ptr %13, i64 0, i64 %indvars.iv.next.i
  %17 = load i32, ptr %16, align 4
  %18 = icmp sgt i32 %15, %17
  br i1 %18, label %19, label %21

19:                                               ; preds = %.lr.ph.i
  %20 = getelementptr inbounds nuw [128 x i32], ptr %13, i64 0, i64 %indvars.iv.i
  store i32 %17, ptr %20, align 4
  store i32 %15, ptr %16, align 4
  br label %21

21:                                               ; preds = %19, %.lr.ph.i
  %22 = phi i32 [ %17, %.lr.ph.i ], [ %15, %19 ]
  %exitcond.not.i = icmp eq i64 %indvars.iv.next.i, %wide.trip.count.i
  br i1 %exitcond.not.i, label %._crit_edge.i, label %.lr.ph.i, !llvm.loop !8

._crit_edge.i:                                    ; preds = %21, %.preheader.i
  %23 = add nuw nsw i32 %.01923.i, 1
  %exitcond28.not.i = icmp eq i32 %23, %12
  br i1 %exitcond28.not.i, label %procfs_sort_pid.exit, label %.preheader.i, !llvm.loop !9

procfs_sort_pid.exit:                             ; preds = %._crit_edge.i, %9
  %24 = getelementptr inbounds nuw i8, ptr %8, i64 552
  store ptr @.str.13, ptr %24, align 8
  br label %56

25:                                               ; preds = %4
  %26 = tail call i64 @strlen(ptr noundef nonnull dereferenceable(1) %1) #12
  %sext = shl i64 %26, 32
  %27 = ashr exact i64 %sext, 32
  br label %28

28:                                               ; preds = %25, %55
  %indvars.iv = phi i64 [ 0, %25 ], [ %indvars.iv.next, %55 ]
  %29 = getelementptr inbounds nuw [13 x %struct.procfs_entry_s], ptr @g_procfs_entries, i64 0, i64 %indvars.iv
  %30 = load ptr, ptr %29, align 8
  %31 = tail call i32 @fnmatch(ptr noundef %30, ptr noundef nonnull %1, i32 noundef 0) #12
  %32 = icmp eq i32 %31, 0
  br i1 %32, label %33, label %43

33:                                               ; preds = %28
  %34 = getelementptr inbounds nuw i8, ptr %29, i64 8
  %35 = load ptr, ptr %34, align 8
  %36 = getelementptr inbounds nuw i8, ptr %35, i64 48
  %37 = load ptr, ptr %36, align 8
  %38 = tail call i32 %37(ptr noundef nonnull %1, ptr noundef %2) #12
  %39 = icmp eq i32 %38, 0
  br i1 %39, label %40, label %.loopexit

40:                                               ; preds = %33
  %41 = load ptr, ptr %2, align 8
  %42 = getelementptr inbounds nuw i8, ptr %41, i64 24
  store ptr %29, ptr %42, align 8
  br label %.loopexit

43:                                               ; preds = %28
  %44 = tail call i32 @strncmp(ptr noundef %30, ptr noundef nonnull %1, i64 noundef %27) #12
  %45 = icmp eq i32 %44, 0
  br i1 %45, label %46, label %55

46:                                               ; preds = %43
  %47 = tail call noalias dereferenceable_or_null(48) ptr @zalloc(i64 noundef 48) #13
  %.not44 = icmp eq ptr %47, null
  br i1 %.not44, label %.loopexit, label %.thread

.thread:                                          ; preds = %46
  %48 = getelementptr inbounds nuw i8, ptr %47, i64 16
  store i8 1, ptr %48, align 8
  %49 = trunc i64 %indvars.iv to i16
  %50 = getelementptr inbounds nuw i8, ptr %47, i64 18
  store i16 %49, ptr %50, align 2
  %51 = getelementptr inbounds nuw i8, ptr %47, i64 34
  store i16 %49, ptr %51, align 2
  %52 = trunc i64 %26 to i8
  %53 = getelementptr inbounds nuw i8, ptr %47, i64 33
  store i8 %52, ptr %53, align 1
  %54 = getelementptr inbounds nuw i8, ptr %47, i64 40
  store ptr @.str.13, ptr %54, align 8
  br label %56

55:                                               ; preds = %43
  %indvars.iv.next = add nuw nsw i64 %indvars.iv, 1
  %exitcond.not = icmp eq i64 %indvars.iv.next, 13
  br i1 %exitcond.not, label %.loopexit, label %28, !llvm.loop !10

56:                                               ; preds = %.thread, %procfs_sort_pid.exit
  %.sink61 = phi ptr [ %47, %.thread ], [ %8, %procfs_sort_pid.exit ]
  %57 = getelementptr inbounds nuw i8, ptr %.sink61, i64 32
  store i8 0, ptr %57, align 8
  %58 = getelementptr inbounds nuw i8, ptr %.sink61, i64 24
  store ptr null, ptr %58, align 8
  store ptr %.sink61, ptr %2, align 8
  br label %.loopexit

.loopexit:                                        ; preds = %55, %46, %33, %40, %7, %56
  %.0 = phi i32 [ 0, %56 ], [ -12, %7 ], [ 0, %40 ], [ %38, %33 ], [ -12, %46 ], [ -2, %55 ]
  ret i32 %.0
}